target datalayout = "e-m:e-p270:32:32-p271:32:32-p272:64:64-i64:64-i128:128-f80:128-n8:16:32:64-S128"
target triple = "x86_64-pc-linux-gnu"

%struct.Aig_Obj_t_ = type { %union.anon, ptr, ptr, i64, i32, i32, %union.anon.0 }
%union.anon = type { ptr }
%union.anon.0 = type { ptr }

; Function Attrs: nounwind uwtable
define void @Saig_StrSimAssignRandom(ptr noundef %0) #0 {
  %2 = alloca ptr, align 8
  %3 = alloca ptr, align 8
  %4 = alloca i32, align 4
  store ptr %0, ptr %2, align 8, !tbaa !3
  call void @llvm.lifetime.start.p0(i64 8, ptr %3) #10
  %5 = load ptr, ptr %2, align 8, !tbaa !3
  %6 = getelementptr inbounds nuw %struct.Aig_Obj_t_, ptr %5, i32 0, i32 6
  %7 = load ptr, ptr %6, align 8, !tbaa !10
  store ptr %7, ptr %3, align 8, !tbaa !11
  call void @llvm.lifetime.start.p0(i64 4, ptr %4) #10
  store i32 0, ptr %4, align 4, !tbaa !8
  br label %8

8:                                                ; preds = %17, %1
  %9 = load i32, ptr %4, align 4, !tbaa !8
  %10 = icmp slt i32 %9, 16
  br i1 %10, label %11, label %20

11:                                               ; preds = %8
  %12 = call i32 @Aig_ManRandom(i32 noundef 0)
  %13 = load ptr, ptr %3, align 8, !tbaa !11
  %14 = load i32, ptr %4, align 4, !tbaa !8
  %15 = sext i32 %14 to i64
  %16 = getelementptr inbounds i32, ptr %13, i64 %15
  store i32 %12, ptr %16, align 4, !tbaa !8
  br label %17

17:                                               ; preds = %11
  %18 = load i32, ptr %4, align 4, !tbaa !8
  %19 = add nsw i32 %18, 1
  store i32 %19, ptr %4, align 4, !tbaa !8
  br label %8, !llvm.loop !18

20:                                               ; preds = %8
  call void @llvm.lifetime.end.p0(i64 4, ptr %4) #10
  call void @llvm.lifetime.end.p0(i64 8, ptr %3) #10
  ret void
}