; Function Attrs: nounwind uwtable
define void @Saig_StrSimAssignRandom(ptr noundef readonly captures(none) %0) local_unnamed_addr #2 {
  %2 = getelementptr inbounds nuw i8, ptr %0, i64 40
  %3 = load ptr, ptr %2, align 8, !tbaa !3
  br label %4

4:                                                ; preds = %1, %4
  %indvars.iv = phi i64 [ 0, %1 ], [ %indvars.iv.next, %4 ]
  %5 = tail call i32 @Aig_ManRandom(i32 noundef 0) #19
  %6 = getelementptr inbounds nuw i32, ptr %3, i64 %indvars.iv
  store i32 %5, ptr %6, align 4, !tbaa !6
  %indvars.iv.next = add nuw nsw i64 %indvars.iv, 1
  %exitcond.not = icmp eq i64 %indvars.iv.next, 16
  br i1 %exitcond.not, label %7, label %4, !llvm.loop !13

7:                                                ; preds = %4
  ret void
}